target datalayout = "e-m:e-p270:32:32-p271:32:32-p272:64:64-i64:64-i128:128-f80:128-n8:16:32:64-S128"
target triple = "x86_64-pc-linux-gnu"

%struct.AVFilterContext = type { ptr, ptr, ptr, ptr, ptr, i32, ptr, ptr, i32, ptr, ptr, i32, i32, ptr, ptr, ptr, ptr, i32, ptr, i32, i32 }
%struct.DrawBoxContext = type { ptr, i32, i32, i32, i32, i32, ptr, [4 x i8], [4 x i8], [4 x i8], i32, i32, i32, ptr, ptr, ptr, ptr, ptr, ptr, i32, i32, i32, i32, ptr }

@.str.6 = private unnamed_addr constant [30 x i8] c"Assertion %s failed at %s:%d\0A\00", align 1
@.str.46 = private unnamed_addr constant [22 x i8] c"Error box source: %s\0A\00", align 1
@.str.47 = private unnamed_addr constant [7 x i8] c"invert\00", align 1
@.str.48 = private unnamed_addr constant [18 x i8] c"box_source_string\00", align 1
@.str.49 = private unnamed_addr constant [25 x i8] c"libavfilter/vf_drawbox.c\00", align 1
@.str.50 = private unnamed_addr constant [27 x i8] c"side_data_detection_bboxes\00", align 1

; Function Attrs: nounwind uwtable
define internal i32 @box_source_string_parse(ptr noundef %0) #1 {
  %2 = alloca i32, align 4
  %3 = alloca ptr, align 8
  store ptr %0, ptr %3, align 8, !tbaa !30
  br label %4

4:                                                ; preds = %1
  %5 = load ptr, ptr %3, align 8, !tbaa !30
  %6 = icmp ne ptr %5, null
  br i1 %6, label %8, label %7

7:                                                ; preds = %4
  call void (ptr, i32, ptr, ...) @av_log(ptr noundef null, i32 noundef 0, ptr noundef @.str.6, ptr noundef @.str.48, ptr noundef @.str.49, i32 noundef 221)
  call void @abort() #13
  unreachable

8:                                                ; preds = %4
  br label %9

9:                                                ; preds = %8
  %10 = load ptr, ptr %3, align 8, !tbaa !30
  %11 = call i32 @strcmp(ptr noundef %10, ptr noundef @.str.50) #11
  %12 = icmp ne i32 %11, 0
  br i1 %12, label %14, label %13

13:                                               ; preds = %9
  store i32 22, ptr %2, align 4
  br label %15

14:                                               ; preds = %9
  store i32 -22, ptr %2, align 4
  br label %15

15:                                               ; preds = %14, %13
  %16 = load i32, ptr %2, align 4
  ret i32 %16
}

; Function Attrs: cold nounwind optsize uwtable
define internal i32 @init(ptr noundef %0) #0 {
  %2 = alloca i32, align 4
  %3 = alloca ptr, align 8
  %4 = alloca ptr, align 8
  %5 = alloca i32, align 4
  store ptr %0, ptr %3, align 8, !tbaa !4
  call void @llvm.lifetime.start.p0(i64 8, ptr %4) #10
  %6 = load ptr, ptr %3, align 8, !tbaa !4
  %7 = getelementptr inbounds nuw %struct.AVFilterContext, ptr %6, i32 0, i32 9
  %8 = load ptr, ptr %7, align 8, !tbaa !9
  store ptr %8, ptr %4, align 8, !tbaa !22
  %9 = load ptr, ptr %4, align 8, !tbaa !22
  %10 = getelementptr inbounds nuw %struct.DrawBoxContext, ptr %9, i32 0, i32 18
  %11 = load ptr, ptr %10, align 8, !tbaa !24
  %12 = icmp ne ptr %11, null
  br i1 %12, label %13, label %30

13:                                               ; preds = %1
  %14 = load ptr, ptr %4, align 8, !tbaa !22
  %15 = getelementptr inbounds nuw %struct.DrawBoxContext, ptr %14, i32 0, i32 18
  %16 = load ptr, ptr %15, align 8, !tbaa !24
  %17 = call i32 @box_source_string_parse(ptr noundef %16)
  %18 = load ptr, ptr %4, align 8, !tbaa !22
  %19 = getelementptr inbounds nuw %struct.DrawBoxContext, ptr %18, i32 0, i32 22
  store i32 %17, ptr %19, align 4, !tbaa !26
  %20 = load ptr, ptr %4, align 8, !tbaa !22
  %21 = getelementptr inbounds nuw %struct.DrawBoxContext, ptr %20, i32 0, i32 22
  %22 = load i32, ptr %21, align 4, !tbaa !26
  %23 = icmp slt i32 %22, 0
  br i1 %23, label %24, label %29

24:                                               ; preds = %13
  %25 = load ptr, ptr %3, align 8, !tbaa !4
  %26 = load ptr, ptr %4, align 8, !tbaa !22
  %27 = getelementptr inbounds nuw %struct.DrawBoxContext, ptr %26, i32 0, i32 18
  %28 = load ptr, ptr %27, align 8, !tbaa !24
  call void (ptr, i32, ptr, ...) @av_log(ptr noundef %25, i32 noundef 16, ptr noundef @.str.46, ptr noundef %28)
  store i32 -22, ptr %2, align 4
  store i32 1, ptr %5, align 4
  br label %147

29:                                               ; preds = %13
  br label %30

30:                                               ; preds = %29, %1
  %31 = load ptr, ptr %4, align 8, !tbaa !22
  %32 = getelementptr inbounds nuw %struct.DrawBoxContext, ptr %31, i32 0, i32 6
  %33 = load ptr, ptr %32, align 8, !tbaa !27
  %34 = call i32 @strcmp(ptr noundef %33, ptr noundef @.str.47) #11
  %35 = icmp ne i32 %34, 0
  br i1 %35, label %39, label %36

36:                                               ; preds = %30
  %37 = load ptr, ptr %4, align 8, !tbaa !22
  %38 = getelementptr inbounds nuw %struct.DrawBoxContext, ptr %37, i32 0, i32 10
  store i32 1, ptr %38, align 4, !tbaa !28
  br label %51

39:                                               ; preds = %30
  %40 = load ptr, ptr %4, align 8, !tbaa !22
  %41 = getelementptr inbounds nuw %struct.DrawBoxContext, ptr %40, i32 0, i32 8
  %42 = getelementptr inbounds [4 x i8], ptr %41, i64 0, i64 0
  %43 = load ptr, ptr %4, align 8, !tbaa !22
  %44 = getelementptr inbounds nuw %struct.DrawBoxContext, ptr %43, i32 0, i32 6
  %45 = load ptr, ptr %44, align 8, !tbaa !27
  %46 = load ptr, ptr %3, align 8, !tbaa !4
  %47 = call i32 @av_parse_color(ptr noundef %42, ptr noundef %45, i32 noundef -1, ptr noundef %46)
  %48 = icmp slt i32 %47, 0
  br i1 %48, label %49, label %50

49:                                               ; preds = %39
  store i32 -22, ptr %2, align 4
  store i32 1, ptr %5, align 4
  br label %147

50:                                               ; preds = %39
  br label %51

51:                                               ; preds = %50, %36
  %52 = load ptr, ptr %4, align 8, !tbaa !22
  %53 = getelementptr inbounds nuw %struct.DrawBoxContext, ptr %52, i32 0, i32 10
  %54 = load i32, ptr %53, align 4, !tbaa !28
  %55 = icmp ne i32 %54, 0
  br i1 %55, label %146, label %56

56:                                               ; preds = %51
  %57 = load ptr, ptr %4, align 8, !tbaa !22
  %58 = getelementptr inbounds nuw %struct.DrawBoxContext, ptr %57, i32 0, i32 8
  %59 = getelementptr inbounds [4 x i8], ptr %58, i64 0, i64 0
  %60 = load i8, ptr %59, align 4, !tbaa !29
  %61 = zext i8 %60 to i32
  %62 = mul nsw i32 263, %61
  %63 = load ptr, ptr %4, align 8, !tbaa !22
  %64 = getelementptr inbounds nuw %struct.DrawBoxContext, ptr %63, i32 0, i32 8
  %65 = getelementptr inbounds [4 x i8], ptr %64, i64 0, i64 1
  %66 = load i8, ptr %65, align 1, !tbaa !29
  %67 = zext i8 %66 to i32
  %68 = mul nsw i32 516, %67
  %69 = add nsw i32 %62, %68
  %70 = load ptr, ptr %4, align 8, !tbaa !22
  %71 = getelementptr inbounds nuw %struct.DrawBoxContext, ptr %70, i32 0, i32 8
  %72 = getelementptr inbounds [4 x i8], ptr %71, i64 0, i64 2
  %73 = load i8, ptr %72, align 2, !tbaa !29
  %74 = zext i8 %73 to i32
  %75 = mul nsw i32 100, %74
  %76 = add nsw i32 %69, %75
  %77 = add nsw i32 %76, 16896
  %78 = ashr i32 %77, 10
  %79 = trunc i32 %78 to i8
  %80 = load ptr, ptr %4, align 8, !tbaa !22
  %81 = getelementptr inbounds nuw %struct.DrawBoxContext, ptr %80, i32 0, i32 9
  %82 = getelementptr inbounds [4 x i8], ptr %81, i64 0, i64 0
  store i8 %79, ptr %82, align 8, !tbaa !29
  %83 = load ptr, ptr %4, align 8, !tbaa !22
  %84 = getelementptr inbounds nuw %struct.DrawBoxContext, ptr %83, i32 0, i32 8
  %85 = getelementptr inbounds [4 x i8], ptr %84, i64 0, i64 0
  %86 = load i8, ptr %85, align 4, !tbaa !29
  %87 = zext i8 %86 to i32
  %88 = mul nsw i32 -152, %87
  %89 = load ptr, ptr %4, align 8, !tbaa !22
  %90 = getelementptr inbounds nuw %struct.DrawBoxContext, ptr %89, i32 0, i32 8
  %91 = getelementptr inbounds [4 x i8], ptr %90, i64 0, i64 1
  %92 = load i8, ptr %91, align 1, !tbaa !29
  %93 = zext i8 %92 to i32
  %94 = mul nsw i32 298, %93
  %95 = sub nsw i32 %88, %94
  %96 = load ptr, ptr %4, align 8, !tbaa !22
  %97 = getelementptr inbounds nuw %struct.DrawBoxContext, ptr %96, i32 0, i32 8
  %98 = getelementptr inbounds [4 x i8], ptr %97, i64 0, i64 2
  %99 = load i8, ptr %98, align 2, !tbaa !29
  %100 = zext i8 %99 to i32
  %101 = mul nsw i32 450, %100
  %102 = add nsw i32 %95, %101
  %103 = add nsw i32 %102, 512
  %104 = sub nsw i32 %103, 1
  %105 = ashr i32 %104, 10
  %106 = add nsw i32 %105, 128
  %107 = trunc i32 %106 to i8
  %108 = load ptr, ptr %4, align 8, !tbaa !22
  %109 = getelementptr inbounds nuw %struct.DrawBoxContext, ptr %108, i32 0, i32 9
  %110 = getelementptr inbounds [4 x i8], ptr %109, i64 0, i64 1
  store i8 %107, ptr %110, align 1, !tbaa !29
  %111 = load ptr, ptr %4, align 8, !tbaa !22
  %112 = getelementptr inbounds nuw %struct.DrawBoxContext, ptr %111, i32 0, i32 8
  %113 = getelementptr inbounds [4 x i8], ptr %112, i64 0, i64 0
  %114 = load i8, ptr %113, align 4, !tbaa !29
  %115 = zext i8 %114 to i32
  %116 = mul nsw i32 450, %115
  %117 = load ptr, ptr %4, align 8, !tbaa !22
  %118 = getelementptr inbounds nuw %struct.DrawBoxContext, ptr %117, i32 0, i32 8
  %119 = getelementptr inbounds [4 x i8], ptr %118, i64 0, i64 1
  %120 = load i8, ptr %119, align 1, !tbaa !29
  %121 = zext i8 %120 to i32
  %122 = mul nsw i32 377, %121
  %123 = sub nsw i32 %116, %122
  %124 = load ptr, ptr %4, align 8, !tbaa !22
  %125 = getelementptr inbounds nuw %struct.DrawBoxContext, ptr %124, i32 0, i32 8
  %126 = getelementptr inbounds [4 x i8], ptr %125, i64 0, i64 2
  %127 = load i8, ptr %126, align 2, !tbaa !29
  %128 = zext i8 %127 to i32
  %129 = mul nsw i32 73, %128
  %130 = sub nsw i32 %123, %129
  %131 = add nsw i32 %130, 512
  %132 = sub nsw i32 %131, 1
  %133 = ashr i32 %132, 10
  %134 = add nsw i32 %133, 128
  %135 = trunc i32 %134 to i8
  %136 = load ptr, ptr %4, align 8, !tbaa !22
  %137 = getelementptr inbounds nuw %struct.DrawBoxContext, ptr %136, i32 0, i32 9
  %138 = getelementptr inbounds [4 x i8], ptr %137, i64 0, i64 2
  store i8 %135, ptr %138, align 2, !tbaa !29
  %139 = load ptr, ptr %4, align 8, !tbaa !22
  %140 = getelementptr inbounds nuw %struct.DrawBoxContext, ptr %139, i32 0, i32 8
  %141 = getelementptr inbounds [4 x i8], ptr %140, i64 0, i64 3
  %142 = load i8, ptr %141, align 1, !tbaa !29
  %143 = load ptr, ptr %4, align 8, !tbaa !22
  %144 = getelementptr inbounds nuw %struct.DrawBoxContext, ptr %143, i32 0, i32 9
  %145 = getelementptr inbounds [4 x i8], ptr %144, i64 0, i64 3
  store i8 %142, ptr %145, align 1, !tbaa !29
  br label %146

146:                                              ; preds = %56, %51
  store i32 0, ptr %2, align 4
  store i32 1, ptr %5, align 4
  br label %147

147:                                              ; preds = %146, %49, %24
  call void @llvm.lifetime.end.p0(i64 8, ptr %4) #10
  %148 = load i32, ptr %2, align 4
  ret i32 %148
}