; Function Attrs: cold nounwind optsize uwtable
define internal range(i32 -22, 1) i32 @init(ptr noundef %0) #0 {
  %2 = getelementptr inbounds nuw i8, ptr %0, i64 72
  %3 = load ptr, ptr %2, align 8, !tbaa !4
  %4 = getelementptr inbounds nuw i8, ptr %3, i64 104
  %5 = load ptr, ptr %4, align 8, !tbaa !20
  %.not = icmp eq ptr %5, null
  br i1 %.not, label %10, label %6

6:                                                ; preds = %1
  %7 = tail call i32 @strcmp(ptr noundef nonnull readonly dereferenceable(1) %5, ptr noundef nonnull dereferenceable(27) @.str.50) #9
  %.not.i.not = icmp eq i32 %7, 0
  %.0.i = select i1 %.not.i.not, i32 22, i32 -22
  %8 = getelementptr inbounds nuw i8, ptr %3, i64 124
  store i32 %.0.i, ptr %8, align 4, !tbaa !22
  br i1 %.not.i.not, label %10, label %9

9:                                                ; preds = %6
  tail call void (ptr, i32, ptr, ...) @av_log(ptr noundef nonnull %0, i32 noundef 16, ptr noundef nonnull @.str.46, ptr noundef nonnull %5) #10
  br label %60

10:                                               ; preds = %6, %1
  %11 = getelementptr inbounds nuw i8, ptr %3, i64 32
  %12 = load ptr, ptr %11, align 8, !tbaa !23
  %13 = tail call i32 @strcmp(ptr noundef nonnull dereferenceable(1) %12, ptr noundef nonnull dereferenceable(7) @.str.47) #9
  %.not28 = icmp eq i32 %13, 0
  br i1 %.not28, label %.thread, label %15

.thread:                                          ; preds = %10
  %14 = getelementptr inbounds nuw i8, ptr %3, i64 52
  store i32 1, ptr %14, align 4, !tbaa !24
  br label %60

15:                                               ; preds = %10
  %16 = getelementptr inbounds nuw i8, ptr %3, i64 44
  %17 = tail call i32 @av_parse_color(ptr noundef nonnull %16, ptr noundef nonnull %12, i32 noundef -1, ptr noundef nonnull %0) #10
  %18 = icmp slt i32 %17, 0
  br i1 %18, label %60, label %19

19:                                               ; preds = %15
  %.phi.trans.insert = getelementptr inbounds nuw i8, ptr %3, i64 52
  %.pre = load i32, ptr %.phi.trans.insert, align 4, !tbaa !24
  %20 = icmp eq i32 %.pre, 0
  br i1 %20, label %21, label %60

21:                                               ; preds = %19
  %22 = getelementptr inbounds nuw i8, ptr %3, i64 44
  %23 = load i8, ptr %22, align 4, !tbaa !25
  %24 = zext i8 %23 to i32
  %25 = mul nuw nsw i32 %24, 263
  %26 = getelementptr inbounds nuw i8, ptr %3, i64 45
  %27 = load i8, ptr %26, align 1, !tbaa !25
  %28 = zext i8 %27 to i32
  %29 = mul nuw nsw i32 %28, 516
  %30 = getelementptr inbounds nuw i8, ptr %3, i64 46
  %31 = load i8, ptr %30, align 2, !tbaa !25
  %32 = zext i8 %31 to i32
  %33 = mul nuw nsw i32 %32, 100
  %34 = add nuw nsw i32 %25, 16896
  %35 = add nuw nsw i32 %34, %29
  %36 = add nuw nsw i32 %35, %33
  %37 = lshr i32 %36, 10
  %38 = trunc nuw i32 %37 to i8
  %39 = getelementptr inbounds nuw i8, ptr %3, i64 48
  store i8 %38, ptr %39, align 8, !tbaa !25
  %40 = mul nuw nsw i32 %24, 261992
  %.neg = mul nuw nsw i32 %28, 261846
  %41 = mul nuw nsw i32 %32, 450
  %42 = add nuw nsw i32 %40, 511
  %43 = add nuw nsw i32 %42, %.neg
  %44 = add nuw nsw i32 %43, %41
  %45 = lshr i32 %44, 10
  %46 = trunc i32 %45 to i8
  %47 = xor i8 %46, -128
  %48 = getelementptr inbounds nuw i8, ptr %3, i64 49
  store i8 %47, ptr %48, align 1, !tbaa !25
  %49 = mul nuw nsw i32 %24, 450
  %.neg30 = mul nuw nsw i32 %28, 261767
  %.neg31 = mul nuw nsw i32 %32, 262071
  %50 = add nuw nsw i32 %49, 511
  %51 = add nuw nsw i32 %50, %.neg30
  %52 = add nuw nsw i32 %51, %.neg31
  %53 = lshr i32 %52, 10
  %54 = trunc i32 %53 to i8
  %55 = xor i8 %54, -128
  %56 = getelementptr inbounds nuw i8, ptr %3, i64 50
  store i8 %55, ptr %56, align 2, !tbaa !25
  %57 = getelementptr inbounds nuw i8, ptr %3, i64 47
  %58 = load i8, ptr %57, align 1, !tbaa !25
  %59 = getelementptr inbounds nuw i8, ptr %3, i64 51
  store i8 %58, ptr %59, align 1, !tbaa !25
  br label %60

60:                                               ; preds = %.thread, %19, %21, %15, %9
  %.0 = phi i32 [ -22, %9 ], [ -22, %15 ], [ 0, %21 ], [ 0, %19 ], [ 0, %.thread ]
  ret i32 %.0
}